; ModuleID = 'source-C-CXX/61/2936.cpp'
source_filename = "source-C-CXX/61/2936.cpp"
target datalayout = "e-m:e-p270:32:32-p271:32:32-p272:64:64-i64:64-f80:128-n8:16:32:64-S128"
target triple = "x86_64-pc-linux-gnu"

%"class.std::ios_base::Init" = type { i8 }
%"class.std::basic_istream" = type { i32 (...)**, i64, %"class.std::basic_ios" }
%"class.std::basic_ios" = type { %"class.std::ios_base", %"class.std::basic_ostream"*, i8, i8, %"class.std::basic_streambuf"*, %"class.std::ctype"*, %"class.std::num_put"*, %"class.std::num_get"* }
%"class.std::ios_base" = type { i32 (...)**, i64, i64, i32, i32, i32, %"struct.std::ios_base::_Callback_list"*, %"struct.std::ios_base::_Words", [8 x %"struct.std::ios_base::_Words"], i32, %"struct.std::ios_base::_Words"*, %"class.std::locale" }
%"struct.std::ios_base::_Callback_list" = type { %"struct.std::ios_base::_Callback_list"*, void (i32, %"class.std::ios_base"*, i32)*, i32, i32 }
%"struct.std::ios_base::_Words" = type { i8*, i64 }
%"class.std::locale" = type { %"class.std::locale::_Impl"* }
%"class.std::locale::_Impl" = type { i32, %"class.std::locale::facet"**, i64, %"class.std::locale::facet"**, i8** }
%"class.std::locale::facet" = type <{ i32 (...)**, i32, [4 x i8] }>
%"class.std::basic_ostream" = type { i32 (...)**, %"class.std::basic_ios" }
%"class.std::basic_streambuf" = type { i32 (...)**, i8*, i8*, i8*, i8*, i8*, i8*, %"class.std::locale" }
%"class.std::ctype" = type <{ %"class.std::locale::facet.base", [4 x i8], %struct.__locale_struct*, i8, [7 x i8], i32*, i32*, i16*, i8, [256 x i8], [256 x i8], i8, [6 x i8] }>
%"class.std::locale::facet.base" = type <{ i32 (...)**, i32 }>
%struct.__locale_struct = type { [13 x %struct.__locale_data*], i16*, i32*, i32*, [13 x i8*] }
%struct.__locale_data = type opaque
%"class.std::num_put" = type { %"class.std::locale::facet.base", [4 x i8] }
%"class.std::num_get" = type { %"class.std::locale::facet.base", [4 x i8] }

@_ZStL8__ioinit = internal global %"class.std::ios_base::Init" zeroinitializer, align 1
@__dso_handle = external hidden global i8
@_ZSt3cin = external global %"class.std::basic_istream", align 8
@_ZSt4cout = external global %"class.std::basic_ostream", align 8
@llvm.global_ctors = appending global [1 x { i32, void ()*, i8* }] [{ i32, void ()*, i8* } { i32 65535, void ()* @_GLOBAL__sub_I_2936.cpp, i8* null }]

declare void @_ZNSt8ios_base4InitC1Ev(%"class.std::ios_base::Init"* nonnull align 1 dereferenceable(1)) unnamed_addr #0

; Function Attrs: nounwind
declare void @_ZNSt8ios_base4InitD1Ev(%"class.std::ios_base::Init"* nonnull align 1 dereferenceable(1)) unnamed_addr #1

; Function Attrs: nofree nounwind
declare i32 @__cxa_atexit(void (i8*)*, i8*, i8*) local_unnamed_addr #2

; Function Attrs: mustprogress norecurse sspstrong uwtable
define dso_local i32 @main() local_unnamed_addr #3 {
  %1 = alloca i8, align 1
  %2 = alloca [1000 x i8], align 16
  %3 = alloca [1000 x i8], align 16
  %4 = getelementptr inbounds [1000 x i8], [1000 x i8]* %2, i64 0, i64 0
  call void @llvm.lifetime.start.p0i8(i64 1000, i8* nonnull %4) #8
  %5 = getelementptr inbounds [1000 x i8], [1000 x i8]* %3, i64 0, i64 0
  call void @llvm.lifetime.start.p0i8(i64 1000, i8* nonnull %5) #8
  %6 = load i8*, i8** bitcast (%"class.std::basic_istream"* @_ZSt3cin to i8**), align 8, !tbaa !5
  %7 = getelementptr i8, i8* %6, i64 -24
  %8 = bitcast i8* %7 to i64*
  %9 = load i64, i64* %8, align 8
  %10 = add nsw i64 %9, 240
  %11 = getelementptr inbounds i8, i8* bitcast (%"class.std::basic_istream"* @_ZSt3cin to i8*), i64 %10
  %12 = bitcast i8* %11 to %"class.std::ctype"**
  %13 = load %"class.std::ctype"*, %"class.std::ctype"** %12, align 8, !tbaa !8
  %14 = icmp eq %"class.std::ctype"* %13, null
  br i1 %14, label %15, label %16

15:                                               ; preds = %0
  tail call void @_ZSt16__throw_bad_castv() #9
  unreachable

16:                                               ; preds = %0
  %17 = getelementptr inbounds %"class.std::ctype", %"class.std::ctype"* %13, i64 0, i32 8
  %18 = load i8, i8* %17, align 8, !tbaa !13
  %19 = icmp eq i8 %18, 0
  br i1 %19, label %23, label %20

20:                                               ; preds = %16
  %21 = getelementptr inbounds %"class.std::ctype", %"class.std::ctype"* %13, i64 0, i32 9, i64 10
  %22 = load i8, i8* %21, align 1, !tbaa !15
  br label %29

23:                                               ; preds = %16
  tail call void @_ZNKSt5ctypeIcE13_M_widen_initEv(%"class.std::ctype"* nonnull align 8 dereferenceable(570) %13)
  %24 = bitcast %"class.std::ctype"* %13 to i8 (%"class.std::ctype"*, i8)***
  %25 = load i8 (%"class.std::ctype"*, i8)**, i8 (%"class.std::ctype"*, i8)*** %24, align 8, !tbaa !5
  %26 = getelementptr inbounds i8 (%"class.std::ctype"*, i8)*, i8 (%"class.std::ctype"*, i8)** %25, i64 6
  %27 = load i8 (%"class.std::ctype"*, i8)*, i8 (%"class.std::ctype"*, i8)** %26, align 8
  %28 = tail call signext i8 %27(%"class.std::ctype"* nonnull align 8 dereferenceable(570) %13, i8 signext 10)
  br label %29

29:                                               ; preds = %20, %23
  %30 = phi i8 [ %22, %20 ], [ %28, %23 ]
  %31 = call nonnull align 8 dereferenceable(16) %"class.std::basic_istream"* @_ZNSi7getlineEPclc(%"class.std::basic_istream"* nonnull align 8 dereferenceable(16) @_ZSt3cin, i8* nonnull %4, i64 1000, i8 signext %30)
  %32 = call i64 @strlen(i8* noundef nonnull %4) #10
  %33 = trunc i64 %32 to i32
  %34 = icmp sgt i32 %33, 0
  br i1 %34, label %35, label %94

35:                                               ; preds = %29
  %36 = and i64 %32, 4294967295
  %37 = load i8, i8* %4, align 16, !tbaa !15
  %38 = icmp eq i8 %37, 32
  br i1 %38, label %40, label %39

39:                                               ; preds = %35
  store i8 %37, i8* %5, align 16, !tbaa !15
  br label %40

40:                                               ; preds = %35, %39
  %41 = phi i32 [ 1, %39 ], [ 0, %35 ]
  %42 = icmp eq i64 %36, 1
  br i1 %42, label %67, label %43

43:                                               ; preds = %40
  %44 = add nsw i64 %36, -1
  %45 = and i64 %44, 1
  %46 = icmp eq i64 %36, 2
  br i1 %46, label %49, label %47

47:                                               ; preds = %43
  %48 = and i64 %44, -2
  br label %72

49:                                               ; preds = %110, %43
  %50 = phi i32 [ undef, %43 ], [ %111, %110 ]
  %51 = phi i64 [ 1, %43 ], [ %112, %110 ]
  %52 = phi i32 [ %41, %43 ], [ %111, %110 ]
  %53 = icmp eq i64 %45, 0
  br i1 %53, label %67, label %54

54:                                               ; preds = %49
  %55 = getelementptr inbounds [1000 x i8], [1000 x i8]* %2, i64 0, i64 %51
  %56 = load i8, i8* %55, align 1, !tbaa !15
  %57 = icmp eq i8 %56, 32
  br i1 %57, label %58, label %62

58:                                               ; preds = %54
  %59 = add nsw i64 %51, -1
  %60 = getelementptr inbounds [1000 x i8], [1000 x i8]* %2, i64 0, i64 %59
  %61 = load i8, i8* %60, align 1, !tbaa !15
  switch i8 %61, label %62 [
    i8 32, label %67
    i8 46, label %67
  ]

62:                                               ; preds = %58, %54
  %63 = phi i8 [ %56, %54 ], [ 32, %58 ]
  %64 = add nsw i32 %52, 1
  %65 = sext i32 %52 to i64
  %66 = getelementptr inbounds [1000 x i8], [1000 x i8]* %3, i64 0, i64 %65
  store i8 %63, i8* %66, align 1, !tbaa !15
  br label %67

67:                                               ; preds = %49, %58, %58, %62, %40
  %68 = phi i32 [ %41, %40 ], [ %50, %49 ], [ %52, %58 ], [ %52, %58 ], [ %64, %62 ]
  %69 = icmp sgt i32 %68, 0
  br i1 %69, label %70, label %94

70:                                               ; preds = %67
  %71 = zext i32 %68 to i64
  br label %95

72:                                               ; preds = %110, %47
  %73 = phi i64 [ 1, %47 ], [ %112, %110 ]
  %74 = phi i32 [ %41, %47 ], [ %111, %110 ]
  %75 = phi i64 [ %48, %47 ], [ %113, %110 ]
  %76 = getelementptr inbounds [1000 x i8], [1000 x i8]* %2, i64 0, i64 %73
  %77 = load i8, i8* %76, align 1, !tbaa !15
  %78 = icmp eq i8 %77, 32
  br i1 %78, label %79, label %83

79:                                               ; preds = %72
  %80 = add nsw i64 %73, -1
  %81 = getelementptr inbounds [1000 x i8], [1000 x i8]* %2, i64 0, i64 %80
  %82 = load i8, i8* %81, align 1, !tbaa !15
  switch i8 %82, label %83 [
    i8 32, label %88
    i8 46, label %88
  ]

83:                                               ; preds = %79, %72
  %84 = phi i8 [ %77, %72 ], [ 32, %79 ]
  %85 = add nsw i32 %74, 1
  %86 = sext i32 %74 to i64
  %87 = getelementptr inbounds [1000 x i8], [1000 x i8]* %3, i64 0, i64 %86
  store i8 %84, i8* %87, align 1, !tbaa !15
  br label %88

88:                                               ; preds = %83, %79, %79
  %89 = phi i32 [ %74, %79 ], [ %74, %79 ], [ %85, %83 ]
  %90 = add nuw nsw i64 %73, 1
  %91 = getelementptr inbounds [1000 x i8], [1000 x i8]* %2, i64 0, i64 %90
  %92 = load i8, i8* %91, align 1, !tbaa !15
  %93 = icmp eq i8 %92, 32
  br i1 %93, label %102, label %105

94:                                               ; preds = %95, %29, %67
  call void @llvm.lifetime.end.p0i8(i64 1000, i8* nonnull %5) #8
  call void @llvm.lifetime.end.p0i8(i64 1000, i8* nonnull %4) #8
  ret i32 0

95:                                               ; preds = %70, %95
  %96 = phi i64 [ 0, %70 ], [ %100, %95 ]
  %97 = getelementptr inbounds [1000 x i8], [1000 x i8]* %3, i64 0, i64 %96
  %98 = load i8, i8* %97, align 1, !tbaa !15
  call void @llvm.lifetime.start.p0i8(i64 1, i8* nonnull %1)
  store i8 %98, i8* %1, align 1, !tbaa !15
  %99 = call nonnull align 8 dereferenceable(8) %"class.std::basic_ostream"* @_ZSt16__ostream_insertIcSt11char_traitsIcEERSt13basic_ostreamIT_T0_ES6_PKS3_l(%"class.std::basic_ostream"* nonnull align 8 dereferenceable(8) @_ZSt4cout, i8* nonnull %1, i64 1)
  call void @llvm.lifetime.end.p0i8(i64 1, i8* nonnull %1)
  %100 = add nuw nsw i64 %96, 1
  %101 = icmp eq i64 %100, %71
  br i1 %101, label %94, label %95, !llvm.loop !16

102:                                              ; preds = %88
  %103 = getelementptr inbounds [1000 x i8], [1000 x i8]* %2, i64 0, i64 %73
  %104 = load i8, i8* %103, align 1, !tbaa !15
  switch i8 %104, label %105 [
    i8 32, label %110
    i8 46, label %110
  ]

105:                                              ; preds = %102, %88
  %106 = phi i8 [ %92, %88 ], [ 32, %102 ]
  %107 = add nsw i32 %89, 1
  %108 = sext i32 %89 to i64
  %109 = getelementptr inbounds [1000 x i8], [1000 x i8]* %3, i64 0, i64 %108
  store i8 %106, i8* %109, align 1, !tbaa !15
  br label %110

110:                                              ; preds = %105, %102, %102
  %111 = phi i32 [ %89, %102 ], [ %89, %102 ], [ %107, %105 ]
  %112 = add nuw nsw i64 %73, 2
  %113 = add i64 %75, -2
  %114 = icmp eq i64 %113, 0
  br i1 %114, label %49, label %72, !llvm.loop !18
}

; Function Attrs: argmemonly mustprogress nofree nosync nounwind willreturn
declare void @llvm.lifetime.start.p0i8(i64 immarg, i8* nocapture) #4

; Function Attrs: argmemonly mustprogress nofree nounwind readonly willreturn
declare i64 @strlen(i8* nocapture) local_unnamed_addr #5

; Function Attrs: argmemonly mustprogress nofree nosync nounwind willreturn
declare void @llvm.lifetime.end.p0i8(i64 immarg, i8* nocapture) #4

declare nonnull align 8 dereferenceable(16) %"class.std::basic_istream"* @_ZNSi7getlineEPclc(%"class.std::basic_istream"* nonnull align 8 dereferenceable(16), i8*, i64, i8 signext) local_unnamed_addr #0

; Function Attrs: noreturn
declare void @_ZSt16__throw_bad_castv() local_unnamed_addr #6

declare void @_ZNKSt5ctypeIcE13_M_widen_initEv(%"class.std::ctype"* nonnull align 8 dereferenceable(570)) local_unnamed_addr #0

declare nonnull align 8 dereferenceable(8) %"class.std::basic_ostream"* @_ZSt16__ostream_insertIcSt11char_traitsIcEERSt13basic_ostreamIT_T0_ES6_PKS3_l(%"class.std::basic_ostream"* nonnull align 8 dereferenceable(8), i8*, i64) local_unnamed_addr #0

; Function Attrs: sspstrong uwtable
define internal void @_GLOBAL__sub_I_2936.cpp() #7 section ".text.startup" {
  tail call void @_ZNSt8ios_base4InitC1Ev(%"class.std::ios_base::Init"* nonnull align 1 dereferenceable(1) @_ZStL8__ioinit)
  %1 = tail call i32 @__cxa_atexit(void (i8*)* bitcast (void (%"class.std::ios_base::Init"*)* @_ZNSt8ios_base4InitD1Ev to void (i8*)*), i8* getelementptr inbounds (%"class.std::ios_base::Init", %"class.std::ios_base::Init"* @_ZStL8__ioinit, i64 0, i32 0), i8* nonnull @__dso_handle) #8
  ret void
}


!llvm.module.flags = !{!0, !1, !2, !3}
!llvm.ident = !{!4}

!0 = !{i32 1, !"wchar_size", i32 4}
!1 = !{i32 7, !"PIC Level", i32 2}
!2 = !{i32 7, !"PIE Level", i32 2}
!3 = !{i32 7, !"uwtable", i32 1}
!4 = !{!"clang version 13.0.0"}
!5 = !{!6, !6, i64 0}
!6 = !{!"vtable pointer", !7, i64 0}
!7 = !{!"Simple C++ TBAA"}
!8 = !{!9, !10, i64 240}
!9 = !{!"_ZTSSt9basic_iosIcSt11char_traitsIcEE", !10, i64 216, !11, i64 224, !12, i64 225, !10, i64 232, !10, i64 240, !10, i64 248, !10, i64 256}
!10 = !{!"any pointer", !11, i64 0}
!11 = !{!"omnipotent char", !7, i64 0}
!12 = !{!"bool", !11, i64 0}
!13 = !{!14, !11, i64 56}
!14 = !{!"_ZTSSt5ctypeIcE", !10, i64 16, !12, i64 24, !10, i64 32, !10, i64 40, !10, i64 48, !11, i64 56, !11, i64 57, !11, i64 313, !11, i64 569}
!15 = !{!11, !11, i64 0}
!16 = distinct !{!16, !17}
!17 = !{!"llvm.loop.mustprogress"}
!18 = distinct !{!18, !17, !19}
!19 = !{!"llvm.loop.peeled.count", i32 1}
